
code1.o:     file format pe-x86-64


Disassembly of section .text:

0000000000000000 <compare>:
#define min(x, y) ((x) < (y) ? (x) : (y));
int compare(int b, int c)
{
   0:	55                   	push   rbp
   1:	48 89 e5             	mov    rbp,rsp
   4:	48 83 ec 10          	sub    rsp,0x10
   8:	89 4d 10             	mov    DWORD PTR [rbp+0x10],ecx
   b:	89 55 18             	mov    DWORD PTR [rbp+0x18],edx
    int a;
    a = min(b, c);
   e:	8b 55 18             	mov    edx,DWORD PTR [rbp+0x18]
  11:	8b 45 10             	mov    eax,DWORD PTR [rbp+0x10]
  14:	39 c2                	cmp    edx,eax
  16:	0f 4e c2             	cmovle eax,edx
  19:	89 45 fc             	mov    DWORD PTR [rbp-0x4],eax
    return a;
  1c:	8b 45 fc             	mov    eax,DWORD PTR [rbp-0x4]
  1f:	48 83 c4 10          	add    rsp,0x10
  23:	5d                   	pop    rbp
  24:	c3                   	ret
  25:	90                   	nop
  26:	90                   	nop
  27:	90                   	nop
  28:	90                   	nop
  29:	90                   	nop
  2a:	90                   	nop
  2b:	90                   	nop
  2c:	90                   	nop
  2d:	90                   	nop
  2e:	90                   	nop
  2f:	90                   	nop

Disassembly of section .xdata:

0000000000000000 <.xdata>:
   0:	01 08                	add    DWORD PTR [rax],ecx
   2:	03 05 08 12 04 03    	add    eax,DWORD PTR [rip+0x3041208]        # 3041210 <.xdata+0x3041210>
   8:	01 50 00             	add    DWORD PTR [rax+0x0],edx
	...

Disassembly of section .pdata:

0000000000000000 <.pdata>:
   0:	00 00                	add    BYTE PTR [rax],al
   2:	00 00                	add    BYTE PTR [rax],al
   4:	25 00 00 00 00       	and    eax,0x0
   9:	00 00                	add    BYTE PTR [rax],al
	...

Disassembly of section .rdata$zzz:

0000000000000000 <.rdata$zzz>:
   0:	47                   	rex.RXB
   1:	43                   	rex.XB
   2:	43 3a 20             	rex.XB cmp spl,BYTE PTR [r8]
   5:	28 47 4e             	sub    BYTE PTR [rdi+0x4e],al
   8:	55                   	push   rbp
   9:	29 20                	sub    DWORD PTR [rax],esp
   b:	31 31                	xor    DWORD PTR [rcx],esi
   d:	2e 33 2e             	cs xor ebp,DWORD PTR [rsi]
  10:	30 00                	xor    BYTE PTR [rax],al
	...
